; ModuleID = 'source-C-CXX/22/1123.c'
source_filename = "source-C-CXX/22/1123.c"
target datalayout = "e-m:e-p270:32:32-p271:32:32-p272:64:64-i64:64-f80:128-n8:16:32:64-S128"
target triple = "x86_64-pc-linux-gnu"

@.str = private unnamed_addr constant [4 x i8] c"%s \00", align 1

; Function Attrs: nounwind sspstrong uwtable
define dso_local void @main() local_unnamed_addr #0 {
  %1 = alloca [101 x i8], align 16
  %2 = alloca [50 x [100 x i8]], align 16
  %3 = getelementptr inbounds [101 x i8], [101 x i8]* %1, i64 0, i64 0
  call void @llvm.lifetime.start.p0i8(i64 101, i8* nonnull %3) #5
  %4 = getelementptr inbounds [50 x [100 x i8]], [50 x [100 x i8]]* %2, i64 0, i64 0, i64 0
  call void @llvm.lifetime.start.p0i8(i64 5000, i8* nonnull %4) #5
  %5 = call i32 (i8*, ...) bitcast (i32 (...)* @gets to i32 (i8*, ...)*)(i8* nonnull %3) #5
  br label %6

6:                                                ; preds = %0, %22
  %7 = phi i64 [ 0, %0 ], [ %25, %22 ]
  %8 = phi i32 [ 0, %0 ], [ %24, %22 ]
  %9 = phi i32 [ 0, %0 ], [ %23, %22 ]
  %10 = getelementptr inbounds [101 x i8], [101 x i8]* %1, i64 0, i64 %7
  %11 = load i8, i8* %10, align 1, !tbaa !5
  switch i8 %11, label %12 [
    i8 0, label %27
    i8 32, label %17
  ]

12:                                               ; preds = %6
  %13 = sext i32 %9 to i64
  %14 = sext i32 %8 to i64
  %15 = getelementptr inbounds [50 x [100 x i8]], [50 x [100 x i8]]* %2, i64 0, i64 %13, i64 %14
  store i8 %11, i8* %15, align 1, !tbaa !5
  %16 = add nsw i32 %8, 1
  br label %22

17:                                               ; preds = %6
  %18 = sext i32 %9 to i64
  %19 = sext i32 %8 to i64
  %20 = getelementptr inbounds [50 x [100 x i8]], [50 x [100 x i8]]* %2, i64 0, i64 %18, i64 %19
  store i8 0, i8* %20, align 1, !tbaa !5
  %21 = add nsw i32 %9, 1
  br label %22

22:                                               ; preds = %12, %17
  %23 = phi i32 [ %9, %12 ], [ %21, %17 ]
  %24 = phi i32 [ %16, %12 ], [ 0, %17 ]
  %25 = add nuw nsw i64 %7, 1
  %26 = icmp eq i64 %25, 101
  br i1 %26, label %27, label %6, !llvm.loop !8

27:                                               ; preds = %6, %22
  %28 = phi i32 [ %9, %6 ], [ %23, %22 ]
  %29 = phi i32 [ %8, %6 ], [ %24, %22 ]
  %30 = sext i32 %28 to i64
  %31 = sext i32 %29 to i64
  %32 = getelementptr inbounds [50 x [100 x i8]], [50 x [100 x i8]]* %2, i64 0, i64 %30, i64 %31
  store i8 0, i8* %32, align 1, !tbaa !5
  %33 = icmp sgt i32 %28, 0
  br i1 %33, label %34, label %42

34:                                               ; preds = %27
  %35 = zext i32 %28 to i64
  br label %36

36:                                               ; preds = %34, %36
  %37 = phi i64 [ %35, %34 ], [ %41, %36 ]
  %38 = getelementptr inbounds [50 x [100 x i8]], [50 x [100 x i8]]* %2, i64 0, i64 %37, i64 0
  %39 = call i32 (i8*, ...) @printf(i8* nonnull dereferenceable(1) getelementptr inbounds ([4 x i8], [4 x i8]* @.str, i64 0, i64 0), i8* nonnull %38)
  %40 = icmp sgt i64 %37, 1
  %41 = add nsw i64 %37, -1
  br i1 %40, label %36, label %42, !llvm.loop !10

42:                                               ; preds = %36, %27
  %43 = call i32 @puts(i8* nonnull %4)
  call void @llvm.lifetime.end.p0i8(i64 5000, i8* nonnull %4) #5
  call void @llvm.lifetime.end.p0i8(i64 101, i8* nonnull %3) #5
  ret void
}

; Function Attrs: argmemonly mustprogress nofree nosync nounwind willreturn
declare void @llvm.lifetime.start.p0i8(i64 immarg, i8* nocapture) #1

declare i32 @gets(...) local_unnamed_addr #2

; Function Attrs: nofree nounwind
declare noundef i32 @printf(i8* nocapture noundef readonly, ...) local_unnamed_addr #3

; Function Attrs: argmemonly mustprogress nofree nosync nounwind willreturn
declare void @llvm.lifetime.end.p0i8(i64 immarg, i8* nocapture) #1

; Function Attrs: nofree nounwind
declare noundef i32 @puts(i8* nocapture noundef readonly) local_unnamed_addr #4


!llvm.module.flags = !{!0, !1, !2, !3}
!llvm.ident = !{!4}

!0 = !{i32 1, !"wchar_size", i32 4}
!1 = !{i32 7, !"PIC Level", i32 2}
!2 = !{i32 7, !"PIE Level", i32 2}
!3 = !{i32 7, !"uwtable", i32 1}
!4 = !{!"clang version 13.0.0"}
!5 = !{!6, !6, i64 0}
!6 = !{!"omnipotent char", !7, i64 0}
!7 = !{!"Simple C/C++ TBAA"}
!8 = distinct !{!8, !9}
!9 = !{!"llvm.loop.mustprogress"}
!10 = distinct !{!10, !9}
